target datalayout = "e-m:e-p270:32:32-p271:32:32-p272:64:64-i64:64-i128:128-f80:128-n8:16:32:64-S128"
target triple = "x86_64-pc-linux-gnu"

%"class.LIEF::MachO::BuildVersion" = type { %"class.LIEF::MachO::LoadCommand", i32, %"struct.std::array", %"struct.std::array", %"class.std::vector.0" }
%"class.LIEF::MachO::LoadCommand" = type { %"class.LIEF::Object", %"class.std::vector", i64, i32, i64 }
%"class.LIEF::Object" = type { ptr }
%"class.std::vector" = type { %"struct.std::_Vector_base" }
%"struct.std::_Vector_base" = type { %"struct.std::_Vector_base<unsigned char, std::allocator<unsigned char>>::_Vector_impl" }
%"struct.std::_Vector_base<unsigned char, std::allocator<unsigned char>>::_Vector_impl" = type { %"struct.std::_Vector_base<unsigned char, std::allocator<unsigned char>>::_Vector_impl_data" }
%"struct.std::_Vector_base<unsigned char, std::allocator<unsigned char>>::_Vector_impl_data" = type { ptr, ptr, ptr }
%"struct.std::array" = type { [3 x i32] }
%"class.std::vector.0" = type { %"struct.std::_Vector_base.1" }
%"struct.std::_Vector_base.1" = type { %"struct.std::_Vector_base<LIEF::MachO::BuildToolVersion, std::allocator<LIEF::MachO::BuildToolVersion>>::_Vector_impl" }
%"struct.std::_Vector_base<LIEF::MachO::BuildToolVersion, std::allocator<LIEF::MachO::BuildToolVersion>>::_Vector_impl" = type { %"struct.std::_Vector_base<LIEF::MachO::BuildToolVersion, std::allocator<LIEF::MachO::BuildToolVersion>>::_Vector_impl_data" }
%"struct.std::_Vector_base<LIEF::MachO::BuildToolVersion, std::allocator<LIEF::MachO::BuildToolVersion>>::_Vector_impl_data" = type { ptr, ptr, ptr }

; Function Attrs: mustprogress nounwind uwtable
define linkonce_odr hidden noundef i64 @_ZNKSt6vectorIN4LIEF5MachO16BuildToolVersionESaIS2_EE4sizeEv(ptr noundef nonnull align 8 dereferenceable(24) %0) #2 comdat align 2 {
  %2 = alloca ptr, align 8
  store ptr %0, ptr %2, align 8
  %3 = load ptr, ptr %2, align 8
  %4 = getelementptr inbounds %"struct.std::_Vector_base.1", ptr %3, i32 0, i32 0
  %5 = getelementptr inbounds %"struct.std::_Vector_base<LIEF::MachO::BuildToolVersion, std::allocator<LIEF::MachO::BuildToolVersion>>::_Vector_impl_data", ptr %4, i32 0, i32 1
  %6 = load ptr, ptr %5, align 8
  %7 = getelementptr inbounds %"struct.std::_Vector_base.1", ptr %3, i32 0, i32 0
  %8 = getelementptr inbounds %"struct.std::_Vector_base<LIEF::MachO::BuildToolVersion, std::allocator<LIEF::MachO::BuildToolVersion>>::_Vector_impl_data", ptr %7, i32 0, i32 0
  %9 = load ptr, ptr %8, align 8
  %10 = ptrtoint ptr %6 to i64
  %11 = ptrtoint ptr %9 to i64
  %12 = sub i64 %10, %11
  %13 = sdiv exact i64 %12, 24
  ret i64 %13
}

; Function Attrs: mustprogress uwtable
define void @_ZN4LIEF5MachO12BuildVersionC2ENS1_9PLATFORMSERKSt5arrayIjLm3EES6_RKSt6vectorINS0_16BuildToolVersionESaIS8_EE(ptr noundef nonnull align 8 dereferenceable(112) %0, i32 noundef %1, ptr noundef nonnull align 4 dereferenceable(12) %2, ptr noundef nonnull align 4 dereferenceable(12) %3, ptr noundef nonnull align 8 dereferenceable(24) %4) unnamed_addr #0 align 2 personality ptr @__gxx_personality_v0 {
  %6 = alloca ptr, align 8
  %7 = alloca i32, align 4
  %8 = alloca ptr, align 8
  %9 = alloca ptr, align 8
  %10 = alloca ptr, align 8
  %11 = alloca ptr, align 8
  %12 = alloca i32, align 4
  store ptr %0, ptr %6, align 8
  store i32 %1, ptr %7, align 4
  store ptr %2, ptr %8, align 8
  store ptr %3, ptr %9, align 8
  store ptr %4, ptr %10, align 8
  %13 = load ptr, ptr %6, align 8
  %14 = load ptr, ptr %10, align 8
  %15 = call noundef i64 @_ZNKSt6vectorIN4LIEF5MachO16BuildToolVersionESaIS2_EE4sizeEv(ptr noundef nonnull align 8 dereferenceable(24) %14) #11
  %16 = mul i64 8, %15
  %17 = add i64 24, %16
  %18 = trunc i64 %17 to i32
  call void @_ZN4LIEF5MachO11LoadCommandC2ENS0_18LOAD_COMMAND_TYPESEj(ptr noundef nonnull align 8 dereferenceable(56) %13, i64 noundef 50, i32 noundef %18)
  store ptr getelementptr inbounds ({ [9 x ptr] }, ptr @_ZTVN4LIEF5MachO12BuildVersionE, i32 0, i32 0, i32 2), ptr %13, align 8
  %19 = getelementptr inbounds %"class.LIEF::MachO::BuildVersion", ptr %13, i32 0, i32 1
  %20 = load i32, ptr %7, align 4
  store i32 %20, ptr %19, align 8
  %21 = getelementptr inbounds %"class.LIEF::MachO::BuildVersion", ptr %13, i32 0, i32 2
  %22 = load ptr, ptr %8, align 8
  call void @llvm.memcpy.p0.p0.i64(ptr align 4 %21, ptr align 4 %22, i64 12, i1 false)
  %23 = getelementptr inbounds %"class.LIEF::MachO::BuildVersion", ptr %13, i32 0, i32 3
  %24 = load ptr, ptr %9, align 8
  call void @llvm.memcpy.p0.p0.i64(ptr align 8 %23, ptr align 4 %24, i64 12, i1 false)
  %25 = getelementptr inbounds %"class.LIEF::MachO::BuildVersion", ptr %13, i32 0, i32 4
  %26 = load ptr, ptr %10, align 8
  invoke void @_ZNSt6vectorIN4LIEF5MachO16BuildToolVersionESaIS2_EEC2ERKS4_(ptr noundef nonnull align 8 dereferenceable(24) %25, ptr noundef nonnull align 8 dereferenceable(24) %26)
          to label %27 unwind label %33

27:                                               ; preds = %5
  %28 = getelementptr inbounds %"class.LIEF::MachO::LoadCommand", ptr %13, i32 0, i32 1
  %29 = invoke noundef i32 @_ZNK4LIEF5MachO11LoadCommand4sizeEv(ptr noundef nonnull align 8 dereferenceable(56) %13)
          to label %30 unwind label %37

30:                                               ; preds = %27
  %31 = zext i32 %29 to i64
  invoke void @_ZNSt6vectorIhSaIhEE6resizeEm(ptr noundef nonnull align 8 dereferenceable(24) %28, i64 noundef %31)
          to label %32 unwind label %37

32:                                               ; preds = %30
  ret void

33:                                               ; preds = %5
  %34 = landingpad { ptr, i32 }
          cleanup
  %35 = extractvalue { ptr, i32 } %34, 0
  store ptr %35, ptr %11, align 8
  %36 = extractvalue { ptr, i32 } %34, 1
  store i32 %36, ptr %12, align 4
  br label %41

37:                                               ; preds = %30, %27
  %38 = landingpad { ptr, i32 }
          cleanup
  %39 = extractvalue { ptr, i32 } %38, 0
  store ptr %39, ptr %11, align 8
  %40 = extractvalue { ptr, i32 } %38, 1
  store i32 %40, ptr %12, align 4
  call void @_ZNSt6vectorIN4LIEF5MachO16BuildToolVersionESaIS2_EED2Ev(ptr noundef nonnull align 8 dereferenceable(24) %25) #11
  br label %41

41:                                               ; preds = %37, %33
  call void @_ZN4LIEF5MachO11LoadCommandD2Ev(ptr noundef nonnull align 8 dereferenceable(56) %13) #11
  br label %42

42:                                               ; preds = %41
  %43 = load ptr, ptr %11, align 8
  %44 = load i32, ptr %12, align 4
  %45 = insertvalue { ptr, i32 } poison, ptr %43, 0
  %46 = insertvalue { ptr, i32 } %45, i32 %44, 1
  resume { ptr, i32 } %46
}