; Function Attrs: mustprogress uwtable
define void @_ZN4LIEF5MachO12BuildVersionC2ENS1_9PLATFORMSERKSt5arrayIjLm3EES6_RKSt6vectorINS0_16BuildToolVersionESaIS8_EE(ptr noundef nonnull align 8 dereferenceable(112) %0, i32 noundef %1, ptr nocapture noundef nonnull readonly align 4 dereferenceable(12) %2, ptr nocapture noundef nonnull readonly align 4 dereferenceable(12) %3, ptr noundef nonnull align 8 dereferenceable(24) %4) unnamed_addr #0 align 2 personality ptr @__gxx_personality_v0 {
  %6 = getelementptr inbounds i8, ptr %4, i64 8
  %7 = load ptr, ptr %6, align 8
  %8 = load ptr, ptr %4, align 8
  %9 = ptrtoint ptr %7 to i64
  %10 = ptrtoint ptr %8 to i64
  %11 = sub i64 %9, %10
  %12 = sdiv exact i64 %11, 24
  %.tr = trunc i64 %12 to i32
  %13 = shl i32 %.tr, 3
  %14 = add i32 %13, 24
  tail call void @_ZN4LIEF5MachO11LoadCommandC2ENS0_18LOAD_COMMAND_TYPESEj(ptr noundef nonnull align 8 dereferenceable(56) %0, i64 noundef 50, i32 noundef %14)
  store ptr getelementptr inbounds ({ [9 x ptr] }, ptr @_ZTVN4LIEF5MachO12BuildVersionE, i64 0, i32 0, i64 2), ptr %0, align 8
  %15 = getelementptr inbounds i8, ptr %0, i64 56
  store i32 %1, ptr %15, align 8
  %16 = getelementptr inbounds i8, ptr %0, i64 60
  tail call void @llvm.memcpy.p0.p0.i64(ptr noundef nonnull align 4 dereferenceable(12) %16, ptr noundef nonnull align 4 dereferenceable(12) %2, i64 12, i1 false)
  %17 = getelementptr inbounds i8, ptr %0, i64 72
  tail call void @llvm.memcpy.p0.p0.i64(ptr noundef nonnull align 8 dereferenceable(12) %17, ptr noundef nonnull align 4 dereferenceable(12) %3, i64 12, i1 false)
  %18 = getelementptr inbounds i8, ptr %0, i64 88
  invoke void @_ZNSt6vectorIN4LIEF5MachO16BuildToolVersionESaIS2_EEC2ERKS4_(ptr noundef nonnull align 8 dereferenceable(24) %18, ptr noundef nonnull align 8 dereferenceable(24) %4)
          to label %19 unwind label %25

19:                                               ; preds = %5
  %20 = invoke noundef i32 @_ZNK4LIEF5MachO11LoadCommand4sizeEv(ptr noundef nonnull align 8 dereferenceable(56) %0)
          to label %21 unwind label %27

21:                                               ; preds = %19
  %22 = getelementptr inbounds i8, ptr %0, i64 8
  %23 = zext i32 %20 to i64
  invoke void @_ZNSt6vectorIhSaIhEE6resizeEm(ptr noundef nonnull align 8 dereferenceable(24) %22, i64 noundef %23)
          to label %24 unwind label %27

24:                                               ; preds = %21
  ret void

25:                                               ; preds = %5
  %26 = landingpad { ptr, i32 }
          cleanup
  br label %29

27:                                               ; preds = %21, %19
  %28 = landingpad { ptr, i32 }
          cleanup
  tail call void @_ZNSt6vectorIN4LIEF5MachO16BuildToolVersionESaIS2_EED2Ev(ptr noundef nonnull align 8 dereferenceable(24) %18) #14
  br label %29

29:                                               ; preds = %27, %25
  %.pn = phi { ptr, i32 } [ %28, %27 ], [ %26, %25 ]
  tail call void @_ZN4LIEF5MachO11LoadCommandD2Ev(ptr noundef nonnull align 8 dereferenceable(56) %0) #14
  resume { ptr, i32 } %.pn
}